target datalayout = "e-m:e-p270:32:32-p271:32:32-p272:64:64-i64:64-i128:128-f80:128-n8:16:32:64-S128"
target triple = "x86_64-unknown-linux-gnu"

%struct.UHCIState = type { %struct.PCIDevice, %struct.MemoryRegion, %struct.USBBus, i16, i16, i16, i16, i32, i8, i8, i64, ptr, ptr, i32, i32, i8, [2 x %struct.UHCIPort], ptr, i32, %union.anon.8, i8, ptr, i32, i32 }
%struct.PCIDevice = type { %struct.DeviceState, i8, i8, ptr, ptr, ptr, ptr, ptr, i32, %struct.PCIReqIDCache, [64 x i8], [7 x %struct.PCIIORegion], %struct.AddressSpace, %struct.MemoryRegion, %struct.MemoryRegion, ptr, ptr, [3 x ptr], i8, i8, i32, i8, i32, ptr, ptr, ptr, ptr, ptr, ptr, %struct.MemoryRegion, %struct.MemoryRegion, %struct.MemoryRegion, ptr, i8, i32, i8, %struct.PCIExpressDevice, ptr, ptr, i32, i8, %struct.MemoryRegion, i32, ptr, ptr, ptr, ptr, ptr, i32 }
%struct.DeviceState = type { %struct.Object, ptr, ptr, i8, i8, i64, ptr, i32, i8, ptr, %struct.NamedGPIOListHead, %struct.NamedClockListHead, %struct.BusStateHead, i32, i32, i32, %struct.ResettableState, ptr, %struct.MemReentrancyGuard }
%struct.Object = type { ptr, ptr, ptr, i32, ptr }
%struct.NamedGPIOListHead = type { ptr }
%struct.NamedClockListHead = type { ptr }
%struct.BusStateHead = type { ptr }
%struct.ResettableState = type { i32, i8, i8 }
%struct.MemReentrancyGuard = type { i8 }
%struct.PCIReqIDCache = type { ptr, i32 }
%struct.PCIIORegion = type { i64, i64, i8, ptr, ptr }
%struct.AddressSpace = type { %struct.rcu_head, ptr, ptr, ptr, i32, i32, ptr, %union.anon, %union.anon.0 }
%struct.rcu_head = type { ptr, ptr }
%union.anon = type { %struct.QTailQLink }
%struct.QTailQLink = type { ptr, ptr }
%union.anon.0 = type { %struct.QTailQLink }
%struct.PCIExpressDevice = type { i8, i8, i8, i16, %struct.PCIEAERLog, i16, i16, i16, %struct.PCIESriovPF, %struct.PCIESriovVF }
%struct.PCIEAERLog = type { i16, i16, ptr }
%struct.PCIESriovPF = type { i16, [7 x i8], ptr, ptr }
%struct.PCIESriovVF = type { ptr, i16 }
%struct.MemoryRegion = type { %struct.Object, i8, i8, i8, i8, i8, i8, i8, i8, i8, i8, ptr, ptr, ptr, ptr, ptr, ptr, i32, i128, i64, ptr, i64, i8, i8, i8, i8, i8, ptr, i64, i32, %union.anon.1, %union.anon.2, %union.anon.3, ptr, i32, ptr, ptr, i8 }
%union.anon.1 = type { %struct.QTailQLink }
%union.anon.2 = type { %struct.QTailQLink }
%union.anon.3 = type { %struct.QTailQLink }
%struct.USBBus = type { %struct.BusState, ptr, i32, i32, i32, %union.anon.4, %union.anon.5, %union.anon.6 }
%struct.BusState = type { %struct.Object, ptr, ptr, ptr, i32, i8, i8, i32, %union.BusChildHead, %struct.BusStateEntry, %struct.ResettableState }
%union.BusChildHead = type { %struct.QTailQLink }
%struct.BusStateEntry = type { ptr, ptr }
%union.anon.4 = type { %struct.QTailQLink }
%union.anon.5 = type { %struct.QTailQLink }
%union.anon.6 = type { %struct.QTailQLink }
%struct.UHCIPort = type { %struct.USBPort, i16 }
%struct.USBPort = type { ptr, i32, i32, [16 x i8], ptr, ptr, i32, %union.anon.7 }
%union.anon.7 = type { %struct.QTailQLink }
%union.anon.8 = type { %struct.QTailQLink }
%struct.UHCIQueue = type { i32, i32, ptr, ptr, %union.anon.13, %union.anon.14, i8 }
%union.anon.13 = type { %struct.QTailQLink }
%union.anon.14 = type { %struct.QTailQLink }
%struct.timeval = type { i64, i64 }
%struct.UHCI_TD = type { i32, i32, i32, i32 }

@trace_events_enabled_count = external global i32, align 4
@message_with_timestamp = external global i8, align 1
@qemu_loglevel = external global i32, align 4
@_TRACE_USB_UHCI_QUEUE_ADD_DSTATE = external global i16, align 2
@.str.41 = private unnamed_addr constant [44 x i8] c"%d@%zu.%06zu:usb_uhci_queue_add token 0x%x\0A\00", align 1
@.str.42 = private unnamed_addr constant [31 x i8] c"usb_uhci_queue_add token 0x%x\0A\00", align 1

; Function Attrs: nounwind sspstrong uwtable
define internal zeroext i1 @qemu_loglevel_mask(i32 noundef %mask) #0 {
entry:
  %mask.addr = alloca i32, align 4
  store i32 %mask, ptr %mask.addr, align 4
  %0 = load i32, ptr @qemu_loglevel, align 4
  %1 = load i32, ptr %mask.addr, align 4
  %and = and i32 %0, %1
  %cmp = icmp ne i32 %and, 0
  ret i1 %cmp
}

; Function Attrs: nounwind sspstrong uwtable
define internal void @_nocheck__trace_usb_uhci_queue_add(i32 noundef %token) #0 {
entry:
  %token.addr = alloca i32, align 4
  %_now = alloca %struct.timeval, align 8
  store i32 %token, ptr %token.addr, align 4
  %0 = load i32, ptr @trace_events_enabled_count, align 4
  %tobool = icmp ne i32 %0, 0
  %lnot = xor i1 %tobool, true
  %lnot1 = xor i1 %lnot, true
  %lnot.ext = zext i1 %lnot1 to i32
  %conv = sext i32 %lnot.ext to i64
  %tobool2 = icmp ne i64 %conv, 0
  br i1 %tobool2, label %land.lhs.true, label %if.end11

land.lhs.true:                                    ; preds = %entry
  %1 = load i16, ptr @_TRACE_USB_UHCI_QUEUE_ADD_DSTATE, align 2
  %conv3 = zext i16 %1 to i32
  %tobool4 = icmp ne i32 %conv3, 0
  br i1 %tobool4, label %land.lhs.true5, label %if.end11

land.lhs.true5:                                   ; preds = %land.lhs.true
  %call = call zeroext i1 @qemu_loglevel_mask(i32 noundef 32768)
  br i1 %call, label %if.then, label %if.end11

if.then:                                          ; preds = %land.lhs.true5
  %2 = load i8, ptr @message_with_timestamp, align 1
  %tobool7 = trunc i8 %2 to i1
  br i1 %tobool7, label %if.then8, label %if.else

if.then8:                                         ; preds = %if.then
  %call9 = call i32 @gettimeofday(ptr noundef %_now, ptr noundef null) #7
  %call10 = call i32 @qemu_get_thread_id()
  %tv_sec = getelementptr inbounds %struct.timeval, ptr %_now, i32 0, i32 0
  %3 = load i64, ptr %tv_sec, align 8
  %tv_usec = getelementptr inbounds %struct.timeval, ptr %_now, i32 0, i32 1
  %4 = load i64, ptr %tv_usec, align 8
  %5 = load i32, ptr %token.addr, align 4
  call void (ptr, ...) @qemu_log(ptr noundef @.str.41, i32 noundef %call10, i64 noundef %3, i64 noundef %4, i32 noundef %5)
  br label %if.end

if.else:                                          ; preds = %if.then
  %6 = load i32, ptr %token.addr, align 4
  call void (ptr, ...) @qemu_log(ptr noundef @.str.42, i32 noundef %6)
  br label %if.end

if.end:                                           ; preds = %if.else, %if.then8
  br label %if.end11

if.end11:                                         ; preds = %if.end, %land.lhs.true5, %land.lhs.true, %entry
  ret void
}

; Function Attrs: nounwind sspstrong uwtable
define internal void @trace_usb_uhci_queue_add(i32 noundef %token) #0 {
entry:
  %token.addr = alloca i32, align 4
  store i32 %token, ptr %token.addr, align 4
  %0 = load i32, ptr %token.addr, align 4
  call void @_nocheck__trace_usb_uhci_queue_add(i32 noundef %0)
  ret void
}

; Function Attrs: nounwind sspstrong uwtable
define internal i32 @uhci_queue_token(ptr noundef %td) #0 {
entry:
  %retval = alloca i32, align 4
  %td.addr = alloca ptr, align 8
  store ptr %td, ptr %td.addr, align 8
  %0 = load ptr, ptr %td.addr, align 8
  %token = getelementptr inbounds %struct.UHCI_TD, ptr %0, i32 0, i32 2
  %1 = load i32, ptr %token, align 4
  %and = and i32 %1, 491520
  %cmp = icmp eq i32 %and, 0
  br i1 %cmp, label %if.then, label %if.else

if.then:                                          ; preds = %entry
  %2 = load ptr, ptr %td.addr, align 8
  %token1 = getelementptr inbounds %struct.UHCI_TD, ptr %2, i32 0, i32 2
  %3 = load i32, ptr %token1, align 4
  %and2 = and i32 %3, 524032
  store i32 %and2, ptr %retval, align 4
  br label %return

if.else:                                          ; preds = %entry
  %4 = load ptr, ptr %td.addr, align 8
  %token3 = getelementptr inbounds %struct.UHCI_TD, ptr %4, i32 0, i32 2
  %5 = load i32, ptr %token3, align 4
  %and4 = and i32 %5, 524287
  store i32 %and4, ptr %retval, align 4
  br label %return

return:                                           ; preds = %if.else, %if.then
  %6 = load i32, ptr %retval, align 4
  ret i32 %6
}

; Function Attrs: nounwind sspstrong uwtable
define internal ptr @uhci_queue_new(ptr noundef %s, i32 noundef %qh_addr, ptr noundef %td, ptr noundef %ep) #0 {
entry:
  %s.addr = alloca ptr, align 8
  %qh_addr.addr = alloca i32, align 4
  %td.addr = alloca ptr, align 8
  %ep.addr = alloca ptr, align 8
  %queue = alloca ptr, align 8
  store ptr %s, ptr %s.addr, align 8
  store i32 %qh_addr, ptr %qh_addr.addr, align 4
  store ptr %td, ptr %td.addr, align 8
  store ptr %ep, ptr %ep.addr, align 8
  %call = call noalias ptr @g_malloc0_n(i64 noundef 1, i64 noundef 64) #10
  store ptr %call, ptr %queue, align 8
  %0 = load ptr, ptr %s.addr, align 8
  %1 = load ptr, ptr %queue, align 8
  %uhci = getelementptr inbounds %struct.UHCIQueue, ptr %1, i32 0, i32 2
  store ptr %0, ptr %uhci, align 8
  %2 = load i32, ptr %qh_addr.addr, align 4
  %3 = load ptr, ptr %queue, align 8
  %qh_addr1 = getelementptr inbounds %struct.UHCIQueue, ptr %3, i32 0, i32 0
  store i32 %2, ptr %qh_addr1, align 8
  %4 = load ptr, ptr %td.addr, align 8
  %call2 = call i32 @uhci_queue_token(ptr noundef %4)
  %5 = load ptr, ptr %queue, align 8
  %token = getelementptr inbounds %struct.UHCIQueue, ptr %5, i32 0, i32 1
  store i32 %call2, ptr %token, align 4
  %6 = load ptr, ptr %ep.addr, align 8
  %7 = load ptr, ptr %queue, align 8
  %ep3 = getelementptr inbounds %struct.UHCIQueue, ptr %7, i32 0, i32 3
  store ptr %6, ptr %ep3, align 8
  br label %do.body

do.body:                                          ; preds = %entry
  %8 = load ptr, ptr %queue, align 8
  %asyncs = getelementptr inbounds %struct.UHCIQueue, ptr %8, i32 0, i32 5
  store ptr null, ptr %asyncs, align 8
  %9 = load ptr, ptr %queue, align 8
  %asyncs4 = getelementptr inbounds %struct.UHCIQueue, ptr %9, i32 0, i32 5
  %10 = load ptr, ptr %queue, align 8
  %asyncs5 = getelementptr inbounds %struct.UHCIQueue, ptr %10, i32 0, i32 5
  %tql_prev = getelementptr inbounds %struct.QTailQLink, ptr %asyncs5, i32 0, i32 1
  store ptr %asyncs4, ptr %tql_prev, align 8
  br label %do.end

do.end:                                           ; preds = %do.body
  br label %do.body6

do.body6:                                         ; preds = %do.end
  %11 = load ptr, ptr %s.addr, align 8
  %queues = getelementptr inbounds %struct.UHCIState, ptr %11, i32 0, i32 19
  %12 = load ptr, ptr %queues, align 8
  %13 = load ptr, ptr %queue, align 8
  %next = getelementptr inbounds %struct.UHCIQueue, ptr %13, i32 0, i32 4
  store ptr %12, ptr %next, align 8
  %cmp = icmp ne ptr %12, null
  br i1 %cmp, label %if.then, label %if.else

if.then:                                          ; preds = %do.body6
  %14 = load ptr, ptr %queue, align 8
  %next7 = getelementptr inbounds %struct.UHCIQueue, ptr %14, i32 0, i32 4
  %15 = load ptr, ptr %s.addr, align 8
  %queues8 = getelementptr inbounds %struct.UHCIState, ptr %15, i32 0, i32 19
  %16 = load ptr, ptr %queues8, align 8
  %next9 = getelementptr inbounds %struct.UHCIQueue, ptr %16, i32 0, i32 4
  %tql_prev10 = getelementptr inbounds %struct.QTailQLink, ptr %next9, i32 0, i32 1
  store ptr %next7, ptr %tql_prev10, align 8
  br label %if.end

if.else:                                          ; preds = %do.body6
  %17 = load ptr, ptr %queue, align 8
  %next11 = getelementptr inbounds %struct.UHCIQueue, ptr %17, i32 0, i32 4
  %18 = load ptr, ptr %s.addr, align 8
  %queues12 = getelementptr inbounds %struct.UHCIState, ptr %18, i32 0, i32 19
  %tql_prev13 = getelementptr inbounds %struct.QTailQLink, ptr %queues12, i32 0, i32 1
  store ptr %next11, ptr %tql_prev13, align 8
  br label %if.end

if.end:                                           ; preds = %if.else, %if.then
  %19 = load ptr, ptr %queue, align 8
  %20 = load ptr, ptr %s.addr, align 8
  %queues14 = getelementptr inbounds %struct.UHCIState, ptr %20, i32 0, i32 19
  store ptr %19, ptr %queues14, align 8
  %21 = load ptr, ptr %s.addr, align 8
  %queues15 = getelementptr inbounds %struct.UHCIState, ptr %21, i32 0, i32 19
  %22 = load ptr, ptr %queue, align 8
  %next16 = getelementptr inbounds %struct.UHCIQueue, ptr %22, i32 0, i32 4
  %tql_prev17 = getelementptr inbounds %struct.QTailQLink, ptr %next16, i32 0, i32 1
  store ptr %queues15, ptr %tql_prev17, align 8
  br label %do.end18

do.end18:                                         ; preds = %if.end
  %23 = load ptr, ptr %queue, align 8
  %valid = getelementptr inbounds %struct.UHCIQueue, ptr %23, i32 0, i32 6
  store i8 32, ptr %valid, align 8
  %24 = load ptr, ptr %queue, align 8
  %token19 = getelementptr inbounds %struct.UHCIQueue, ptr %24, i32 0, i32 1
  %25 = load i32, ptr %token19, align 4
  call void @trace_usb_uhci_queue_add(i32 noundef %25)
  %26 = load ptr, ptr %queue, align 8
  ret ptr %26
}