; Function Attrs: nounwind sspstrong uwtable
define internal fastcc noundef ptr @uhci_queue_new(ptr noundef %s, i32 noundef %qh_addr, ptr noundef nonnull readonly captures(none) %td, ptr noundef %ep) unnamed_addr #0 {
entry:
  %_now.i.i = alloca %struct.timeval, align 8
  %call = tail call noalias dereferenceable_or_null(64) ptr @g_malloc0_n(i64 noundef 1, i64 noundef 64) #12
  %uhci = getelementptr inbounds nuw i8, ptr %call, i64 8
  store ptr %s, ptr %uhci, align 8
  store i32 %qh_addr, ptr %call, align 8
  %0 = getelementptr i8, ptr %td, i64 8
  %td.val = load i32, ptr %0, align 4
  %and.i = and i32 %td.val, 491520
  %cmp.i = icmp eq i32 %and.i, 0
  %retval.0.v.i = select i1 %cmp.i, i32 32512, i32 524287
  %retval.0.i = and i32 %retval.0.v.i, %td.val
  %token = getelementptr inbounds nuw i8, ptr %call, i64 4
  store i32 %retval.0.i, ptr %token, align 4
  %ep3 = getelementptr inbounds nuw i8, ptr %call, i64 16
  store ptr %ep, ptr %ep3, align 8
  %asyncs = getelementptr inbounds nuw i8, ptr %call, i64 40
  store ptr null, ptr %asyncs, align 8
  %tql_prev = getelementptr inbounds nuw i8, ptr %call, i64 48
  store ptr %asyncs, ptr %tql_prev, align 8
  %queues = getelementptr inbounds nuw i8, ptr %s, i64 3304
  %1 = load ptr, ptr %queues, align 8
  %next = getelementptr inbounds nuw i8, ptr %call, i64 24
  store ptr %1, ptr %next, align 8
  %cmp.not = icmp eq ptr %1, null
  br i1 %cmp.not, label %if.else, label %if.then

if.then:                                          ; preds = %entry
  %tql_prev10 = getelementptr inbounds nuw i8, ptr %1, i64 32
  store ptr %next, ptr %tql_prev10, align 8
  %.pre = load i32, ptr %token, align 4
  br label %if.end

if.else:                                          ; preds = %entry
  %tql_prev13 = getelementptr inbounds nuw i8, ptr %s, i64 3312
  store ptr %next, ptr %tql_prev13, align 8
  br label %if.end

if.end:                                           ; preds = %if.else, %if.then
  %2 = phi i32 [ %retval.0.i, %if.else ], [ %.pre, %if.then ]
  store ptr %call, ptr %queues, align 8
  %tql_prev17 = getelementptr inbounds nuw i8, ptr %call, i64 32
  store ptr %queues, ptr %tql_prev17, align 8
  %valid = getelementptr inbounds nuw i8, ptr %call, i64 56
  store i8 32, ptr %valid, align 8
  call void @llvm.lifetime.start.p0(i64 16, ptr nonnull %_now.i.i)
  %3 = load i32, ptr @trace_events_enabled_count, align 4
  %tobool.i.i = icmp ne i32 %3, 0
  %4 = load i16, ptr @_TRACE_USB_UHCI_QUEUE_ADD_DSTATE, align 2
  %tobool4.i.i = icmp ne i16 %4, 0
  %or.cond.i.i = select i1 %tobool.i.i, i1 %tobool4.i.i, i1 false
  br i1 %or.cond.i.i, label %land.lhs.true5.i.i, label %trace_usb_uhci_queue_add.exit

land.lhs.true5.i.i:                               ; preds = %if.end
  %5 = load i32, ptr @qemu_loglevel, align 4
  %and.i.i.i = and i32 %5, 32768
  %cmp.i.not.i.i = icmp eq i32 %and.i.i.i, 0
  br i1 %cmp.i.not.i.i, label %trace_usb_uhci_queue_add.exit, label %if.then.i.i

if.then.i.i:                                      ; preds = %land.lhs.true5.i.i
  %6 = load i8, ptr @message_with_timestamp, align 1
  %tobool7.i.i = trunc i8 %6 to i1
  br i1 %tobool7.i.i, label %if.then8.i.i, label %if.else.i.i

if.then8.i.i:                                     ; preds = %if.then.i.i
  %call9.i.i = call i32 @gettimeofday(ptr noundef nonnull %_now.i.i, ptr noundef null) #11
  %call10.i.i = tail call i32 @qemu_get_thread_id() #11
  %7 = load i64, ptr %_now.i.i, align 8
  %tv_usec.i.i = getelementptr inbounds nuw i8, ptr %_now.i.i, i64 8
  %8 = load i64, ptr %tv_usec.i.i, align 8
  tail call void (ptr, ...) @qemu_log(ptr noundef nonnull @.str.41, i32 noundef %call10.i.i, i64 noundef %7, i64 noundef %8, i32 noundef %2) #11
  br label %trace_usb_uhci_queue_add.exit

if.else.i.i:                                      ; preds = %if.then.i.i
  tail call void (ptr, ...) @qemu_log(ptr noundef nonnull @.str.42, i32 noundef %2) #11
  br label %trace_usb_uhci_queue_add.exit

trace_usb_uhci_queue_add.exit:                    ; preds = %if.end, %land.lhs.true5.i.i, %if.then8.i.i, %if.else.i.i
  call void @llvm.lifetime.end.p0(i64 16, ptr nonnull %_now.i.i)
  ret ptr %call
}